; Function Attrs: nounwind uwtable
define range(i32 0, -2147483648) i32 @Abc_SclCountMaxPhases(ptr noundef readonly captures(none) %0) local_unnamed_addr #2 {
  %2 = getelementptr i8, ptr %0, i64 32
  %.val38 = load ptr, ptr %2, align 8, !tbaa !3
  %3 = getelementptr i8, ptr %.val38, i64 4
  %.val38.val = load i32, ptr %3, align 4, !tbaa !24
  %4 = add i32 %.val38.val, -1
  %or.cond.i.i = icmp ult i32 %4, 15
  %spec.store.select.i.i = select i1 %or.cond.i.i, i32 16, i32 %.val38.val
  %.not.i.i = icmp eq i32 %spec.store.select.i.i, 0
  br i1 %.not.i.i, label %Vec_IntStart.exit, label %Vec_IntAlloc.exit.i

Vec_IntAlloc.exit.i:                              ; preds = %1
  %5 = sext i32 %spec.store.select.i.i to i64
  %6 = shl nsw i64 %5, 2
  %7 = tail call noalias ptr @malloc(i64 noundef %6) #18
  %.not.i = icmp eq ptr %7, null
  br i1 %.not.i, label %Vec_IntStart.exit, label %8

8:                                                ; preds = %Vec_IntAlloc.exit.i
  %9 = sext i32 %.val38.val to i64
  %10 = shl nsw i64 %9, 2
  tail call void @llvm.memset.p0.i64(ptr nonnull align 4 %7, i8 0, i64 %10, i1 false)
  br label %Vec_IntStart.exit

Vec_IntStart.exit:                                ; preds = %1, %Vec_IntAlloc.exit.i, %8
  %11 = phi ptr [ null, %Vec_IntAlloc.exit.i ], [ %7, %8 ], [ null, %1 ]
  %12 = icmp sgt i32 %.val38.val, 0
  br i1 %12, label %.lr.ph50, label %.critedge

.lr.ph50:                                         ; preds = %Vec_IntStart.exit
  %13 = getelementptr i8, ptr %.val38, i64 8
  %.val32.val = load ptr, ptr %13, align 8, !tbaa !26
  %14 = zext nneg i32 %.val38.val to i64
  br label %15

15:                                               ; preds = %.lr.ph50, %50
  %indvars.iv53 = phi i64 [ 0, %.lr.ph50 ], [ %indvars.iv.next54, %50 ]
  %.049 = phi i32 [ 0, %.lr.ph50 ], [ %.1, %50 ]
  %16 = getelementptr inbounds nuw ptr, ptr %.val32.val, i64 %indvars.iv53
  %17 = load ptr, ptr %16, align 8, !tbaa !27
  %18 = icmp eq ptr %17, null
  br i1 %18, label %50, label %19

19:                                               ; preds = %15
  %20 = getelementptr i8, ptr %17, i64 20
  %.val33 = load i32, ptr %20, align 4
  %21 = and i32 %.val33, 15
  switch i32 %21, label %50 [
    i32 7, label %.preheader
    i32 4, label %.preheader
    i32 3, label %.preheader
  ]

.preheader:                                       ; preds = %19, %19, %19
  %22 = getelementptr i8, ptr %17, i64 28
  %.val34 = load i32, ptr %22, align 4, !tbaa !28
  %23 = icmp sgt i32 %.val34, 0
  br i1 %23, label %.lr.ph, label %.critedge2

.lr.ph:                                           ; preds = %.preheader
  %.val35 = load ptr, ptr %17, align 8, !tbaa !31
  %24 = getelementptr i8, ptr %17, i64 32
  %.val36 = load ptr, ptr %24, align 8, !tbaa !32
  %25 = getelementptr i8, ptr %.val35, i64 32
  %.val35.val = load ptr, ptr %25, align 8, !tbaa !3
  %26 = getelementptr i8, ptr %.val35.val, i64 8
  %.val35.val.val = load ptr, ptr %26, align 8, !tbaa !26
  %27 = getelementptr i8, ptr %17, i64 16
  %.val43 = load i32, ptr %27, align 8, !tbaa !34
  %28 = getelementptr i8, ptr %.val35, i64 384
  %.val42.val = load ptr, ptr %28, align 8, !tbaa !44
  %29 = getelementptr i8, ptr %.val42.val, i64 8
  %.val42.val.val = load ptr, ptr %29, align 8, !tbaa !45
  %30 = sext i32 %.val43 to i64
  %31 = getelementptr inbounds i32, ptr %.val42.val.val, i64 %30
  %32 = load i32, ptr %31, align 4, !tbaa !33
  %wide.trip.count = zext nneg i32 %.val34 to i64
  br label %33

33:                                               ; preds = %.lr.ph, %33
  %indvars.iv = phi i64 [ 0, %.lr.ph ], [ %indvars.iv.next, %33 ]
  %.02746 = phi i32 [ 0, %.lr.ph ], [ %47, %33 ]
  %34 = getelementptr inbounds nuw i32, ptr %.val36, i64 %indvars.iv
  %35 = load i32, ptr %34, align 4, !tbaa !33
  %36 = sext i32 %35 to i64
  %37 = getelementptr inbounds ptr, ptr %.val35.val.val, i64 %36
  %38 = load ptr, ptr %37, align 8, !tbaa !27
  %39 = getelementptr i8, ptr %38, i64 16
  %.val37 = load i32, ptr %39, align 8, !tbaa !34
  %40 = sext i32 %.val37 to i64
  %41 = getelementptr inbounds i32, ptr %11, i64 %40
  %42 = load i32, ptr %41, align 4, !tbaa !33
  %43 = trunc nuw nsw i64 %indvars.iv to i32
  %44 = lshr i32 %32, %43
  %45 = and i32 %44, 1
  %46 = add nsw i32 %45, %42
  %47 = tail call noundef i32 @llvm.smax.i32(i32 %.02746, i32 %46)
  %indvars.iv.next = add nuw nsw i64 %indvars.iv, 1
  %exitcond.not = icmp eq i64 %indvars.iv.next, %wide.trip.count
  br i1 %exitcond.not, label %.critedge2, label %33, !llvm.loop !46

.critedge2:                                       ; preds = %33, %.preheader
  %.027.lcssa = phi i32 [ 0, %.preheader ], [ %47, %33 ]
  %48 = getelementptr inbounds nuw i32, ptr %11, i64 %indvars.iv53
  store i32 %.027.lcssa, ptr %48, align 4, !tbaa !33
  %49 = tail call noundef i32 @llvm.smax.i32(i32 %.049, i32 %.027.lcssa)
  br label %50

50:                                               ; preds = %19, %.critedge2, %15
  %.1 = phi i32 [ %.049, %15 ], [ %49, %.critedge2 ], [ %.049, %19 ]
  %indvars.iv.next54 = add nuw nsw i64 %indvars.iv53, 1
  %51 = icmp samesign ult i64 %indvars.iv.next54, %14
  br i1 %51, label %15, label %.critedge, !llvm.loop !47

.critedge:                                        ; preds = %50, %Vec_IntStart.exit
  %.0.lcssa = phi i32 [ 0, %Vec_IntStart.exit ], [ %.1, %50 ]
  %.not.i44 = icmp eq ptr %11, null
  br i1 %.not.i44, label %Vec_IntFree.exit, label %52

52:                                               ; preds = %.critedge
  tail call void @free(ptr noundef nonnull %11) #17
  br label %Vec_IntFree.exit

Vec_IntFree.exit:                                 ; preds = %.critedge, %52
  ret i32 %.0.lcssa
}